target datalayout = "e-m:e-p270:32:32-p271:32:32-p272:64:64-i64:64-i128:128-f80:128-n8:16:32:64-S128"
target triple = "x86_64-pc-linux-gnu"

%struct.AVProbeData = type { ptr, ptr, i32, ptr }

@tty_extensions = internal constant [31 x i8] c"ans,art,asc,diz,ice,nfo,txt,vt\00", align 16

; Function Attrs: nounwind uwtable
define internal i32 @isansicode(i32 noundef %0) #0 {
  %2 = alloca i32, align 4
  store i32 %0, ptr %2, align 4, !tbaa !9
  %3 = load i32, ptr %2, align 4, !tbaa !9
  %4 = icmp eq i32 %3, 27
  br i1 %4, label %19, label %5

5:                                                ; preds = %1
  %6 = load i32, ptr %2, align 4, !tbaa !9
  %7 = icmp eq i32 %6, 10
  br i1 %7, label %19, label %8

8:                                                ; preds = %5
  %9 = load i32, ptr %2, align 4, !tbaa !9
  %10 = icmp eq i32 %9, 13
  br i1 %10, label %19, label %11

11:                                               ; preds = %8
  %12 = load i32, ptr %2, align 4, !tbaa !9
  %13 = icmp sge i32 %12, 32
  br i1 %13, label %14, label %17

14:                                               ; preds = %11
  %15 = load i32, ptr %2, align 4, !tbaa !9
  %16 = icmp slt i32 %15, 127
  br label %17

17:                                               ; preds = %14, %11
  %18 = phi i1 [ false, %11 ], [ %16, %14 ]
  br label %19

19:                                               ; preds = %17, %8, %5, %1
  %20 = phi i1 [ true, %8 ], [ true, %5 ], [ true, %1 ], [ %18, %17 ]
  %21 = zext i1 %20 to i32
  ret i32 %21
}

; Function Attrs: nounwind uwtable
define internal i32 @read_probe(ptr noundef %0) #0 {
  %2 = alloca i32, align 4
  %3 = alloca ptr, align 8
  %4 = alloca i32, align 4
  %5 = alloca i32, align 4
  %6 = alloca i32, align 4
  %7 = alloca i32, align 4
  store ptr %0, ptr %3, align 8, !tbaa !4
  call void @llvm.lifetime.start.p0(i64 4, ptr %4) #6
  store i32 0, ptr %4, align 4, !tbaa !9
  %8 = load ptr, ptr %3, align 8, !tbaa !4
  %9 = getelementptr inbounds nuw %struct.AVProbeData, ptr %8, i32 0, i32 2
  %10 = load i32, ptr %9, align 8, !tbaa !11
  %11 = icmp ne i32 %10, 0
  br i1 %11, label %13, label %12

12:                                               ; preds = %1
  store i32 0, ptr %2, align 4
  store i32 1, ptr %5, align 4
  br label %101

13:                                               ; preds = %1
  call void @llvm.lifetime.start.p0(i64 4, ptr %6) #6
  store i32 0, ptr %6, align 4, !tbaa !9
  br label %14

14:                                               ; preds = %42, %13
  %15 = load i32, ptr %6, align 4, !tbaa !9
  %16 = icmp slt i32 %15, 8
  br i1 %16, label %17, label %23

17:                                               ; preds = %14
  %18 = load i32, ptr %6, align 4, !tbaa !9
  %19 = load ptr, ptr %3, align 8, !tbaa !4
  %20 = getelementptr inbounds nuw %struct.AVProbeData, ptr %19, i32 0, i32 2
  %21 = load i32, ptr %20, align 8, !tbaa !11
  %22 = icmp slt i32 %18, %21
  br label %23

23:                                               ; preds = %17, %14
  %24 = phi i1 [ false, %14 ], [ %22, %17 ]
  br i1 %24, label %26, label %25

25:                                               ; preds = %23
  store i32 2, ptr %5, align 4
  call void @llvm.lifetime.end.p0(i64 4, ptr %6) #6
  br label %45

26:                                               ; preds = %23
  %27 = load ptr, ptr %3, align 8, !tbaa !4
  %28 = getelementptr inbounds nuw %struct.AVProbeData, ptr %27, i32 0, i32 1
  %29 = load ptr, ptr %28, align 8, !tbaa !14
  %30 = load i32, ptr %6, align 4, !tbaa !9
  %31 = sext i32 %30 to i64
  %32 = getelementptr inbounds i8, ptr %29, i64 %31
  %33 = load i8, ptr %32, align 1, !tbaa !15
  %34 = zext i8 %33 to i32
  %35 = call i32 @isansicode(i32 noundef %34)
  %36 = icmp ne i32 %35, 0
  %37 = xor i1 %36, true
  %38 = xor i1 %37, true
  %39 = zext i1 %38 to i32
  %40 = load i32, ptr %4, align 4, !tbaa !9
  %41 = add nsw i32 %40, %39
  store i32 %41, ptr %4, align 4, !tbaa !9
  br label %42

42:                                               ; preds = %26
  %43 = load i32, ptr %6, align 4, !tbaa !9
  %44 = add nsw i32 %43, 1
  store i32 %44, ptr %6, align 4, !tbaa !9
  br label %14, !llvm.loop !16

45:                                               ; preds = %25
  %46 = load i32, ptr %4, align 4, !tbaa !9
  %47 = icmp ne i32 %46, 8
  br i1 %47, label %48, label %49

48:                                               ; preds = %45
  store i32 0, ptr %2, align 4
  store i32 1, ptr %5, align 4
  br label %101

49:                                               ; preds = %45
  call void @llvm.lifetime.start.p0(i64 4, ptr %7) #6
  store i32 8, ptr %7, align 4, !tbaa !9
  br label %50

50:                                               ; preds = %73, %49
  %51 = load i32, ptr %7, align 4, !tbaa !9
  %52 = load ptr, ptr %3, align 8, !tbaa !4
  %53 = getelementptr inbounds nuw %struct.AVProbeData, ptr %52, i32 0, i32 2
  %54 = load i32, ptr %53, align 8, !tbaa !11
  %55 = icmp slt i32 %51, %54
  br i1 %55, label %57, label %56

56:                                               ; preds = %50
  store i32 5, ptr %5, align 4
  call void @llvm.lifetime.end.p0(i64 4, ptr %7) #6
  br label %76

57:                                               ; preds = %50
  %58 = load ptr, ptr %3, align 8, !tbaa !4
  %59 = getelementptr inbounds nuw %struct.AVProbeData, ptr %58, i32 0, i32 1
  %60 = load ptr, ptr %59, align 8, !tbaa !14
  %61 = load i32, ptr %7, align 4, !tbaa !9
  %62 = sext i32 %61 to i64
  %63 = getelementptr inbounds i8, ptr %60, i64 %62
  %64 = load i8, ptr %63, align 1, !tbaa !15
  %65 = zext i8 %64 to i32
  %66 = call i32 @isansicode(i32 noundef %65)
  %67 = icmp ne i32 %66, 0
  %68 = xor i1 %67, true
  %69 = xor i1 %68, true
  %70 = zext i1 %69 to i32
  %71 = load i32, ptr %4, align 4, !tbaa !9
  %72 = add nsw i32 %71, %70
  store i32 %72, ptr %4, align 4, !tbaa !9
  br label %73

73:                                               ; preds = %57
  %74 = load i32, ptr %7, align 4, !tbaa !9
  %75 = add nsw i32 %74, 1
  store i32 %75, ptr %7, align 4, !tbaa !9
  br label %50, !llvm.loop !18

76:                                               ; preds = %56
  %77 = load i32, ptr %4, align 4, !tbaa !9
  %78 = sext i32 %77 to i64
  %79 = mul nsw i64 %78, 99
  %80 = load ptr, ptr %3, align 8, !tbaa !4
  %81 = getelementptr inbounds nuw %struct.AVProbeData, ptr %80, i32 0, i32 2
  %82 = load i32, ptr %81, align 8, !tbaa !11
  %83 = sext i32 %82 to i64
  %84 = sdiv i64 %79, %83
  %85 = load i32, ptr %4, align 4, !tbaa !9
  %86 = icmp sgt i32 %85, 400
  %87 = zext i1 %86 to i32
  %88 = sext i32 %87 to i64
  %89 = mul nsw i64 %84, %88
  %90 = load ptr, ptr %3, align 8, !tbaa !4
  %91 = getelementptr inbounds nuw %struct.AVProbeData, ptr %90, i32 0, i32 0
  %92 = load ptr, ptr %91, align 8, !tbaa !19
  %93 = call i32 @av_match_ext(ptr noundef %92, ptr noundef @tty_extensions)
  %94 = icmp ne i32 %93, 0
  %95 = xor i1 %94, true
  %96 = xor i1 %95, true
  %97 = zext i1 %96 to i32
  %98 = sext i32 %97 to i64
  %99 = mul nsw i64 %89, %98
  %100 = trunc i64 %99 to i32
  store i32 %100, ptr %2, align 4
  store i32 1, ptr %5, align 4
  br label %101

101:                                              ; preds = %76, %48, %12
  call void @llvm.lifetime.end.p0(i64 4, ptr %4) #6
  %102 = load i32, ptr %2, align 4
  ret i32 %102
}