; Function Attrs: nounwind uwtable
define internal i32 @read_probe(ptr noundef readonly captures(none) %0) #0 {
  %2 = getelementptr inbounds nuw i8, ptr %0, i64 16
  %3 = load i32, ptr %2, align 8, !tbaa !4
  %or.cond27 = icmp sgt i32 %3, 0
  br i1 %or.cond27, label %.lr.ph, label %.critedge.thread

.lr.ph:                                           ; preds = %1
  %4 = tail call i32 @llvm.umin.i32(i32 %3, i32 8)
  %5 = getelementptr inbounds nuw i8, ptr %0, i64 8
  %6 = load ptr, ptr %5, align 8, !tbaa !11
  %wide.trip.count = zext nneg i32 %4 to i64
  br label %11

.critedge:                                        ; preds = %isansicode.exit
  %7 = icmp eq i32 %19, 8
  br i1 %7, label %.preheader, label %.critedge.thread

.preheader:                                       ; preds = %.critedge
  %8 = icmp sgt i32 %3, 8
  br i1 %8, label %.lr.ph32, label %._crit_edge

.lr.ph32:                                         ; preds = %.preheader
  %9 = getelementptr inbounds nuw i8, ptr %0, i64 8
  %10 = load ptr, ptr %9, align 8, !tbaa !11
  %wide.trip.count39 = zext nneg i32 %3 to i64
  br label %29

11:                                               ; preds = %.lr.ph, %isansicode.exit
  %indvars.iv = phi i64 [ 0, %.lr.ph ], [ %indvars.iv.next, %isansicode.exit ]
  %.02028 = phi i32 [ 0, %.lr.ph ], [ %19, %isansicode.exit ]
  %12 = getelementptr inbounds nuw i8, ptr %6, i64 %indvars.iv
  %13 = load i8, ptr %12, align 1, !tbaa !12
  switch i8 %13, label %14 [
    i8 27, label %isansicode.exit
    i8 13, label %isansicode.exit
    i8 10, label %isansicode.exit
  ]

14:                                               ; preds = %11
  %15 = add i8 %13, -32
  %16 = icmp ult i8 %15, 95
  %17 = zext i1 %16 to i32
  br label %isansicode.exit

isansicode.exit:                                  ; preds = %11, %11, %11, %14
  %18 = phi i32 [ 1, %11 ], [ %17, %14 ], [ 1, %11 ], [ 1, %11 ]
  %19 = add nuw nsw i32 %18, %.02028
  %indvars.iv.next = add nuw nsw i64 %indvars.iv, 1
  %exitcond.not = icmp eq i64 %indvars.iv.next, %wide.trip.count
  br i1 %exitcond.not, label %.critedge, label %11, !llvm.loop !13

._crit_edge:                                      ; preds = %isansicode.exit25, %.preheader
  %.1.lcssa = phi i32 [ 8, %.preheader ], [ %37, %isansicode.exit25 ]
  %20 = zext nneg i32 %.1.lcssa to i64
  %21 = mul nuw nsw i64 %20, 99
  %22 = zext nneg i32 %3 to i64
  %23 = udiv i64 %21, %22
  %24 = icmp ugt i32 %.1.lcssa, 400
  %25 = load ptr, ptr %0, align 8, !tbaa !15
  %26 = tail call i32 @av_match_ext(ptr noundef %25, ptr noundef nonnull @tty_extensions) #4
  %.not24 = icmp eq i32 %26, 0
  %27 = trunc i64 %23 to i32
  %spec.select = select i1 %24, i32 %27, i32 0
  %28 = select i1 %.not24, i32 0, i32 %spec.select
  br label %.critedge.thread

29:                                               ; preds = %.lr.ph32, %isansicode.exit25
  %indvars.iv36 = phi i64 [ 8, %.lr.ph32 ], [ %indvars.iv.next37, %isansicode.exit25 ]
  %.130 = phi i32 [ 8, %.lr.ph32 ], [ %37, %isansicode.exit25 ]
  %30 = getelementptr inbounds nuw i8, ptr %10, i64 %indvars.iv36
  %31 = load i8, ptr %30, align 1, !tbaa !12
  switch i8 %31, label %32 [
    i8 27, label %isansicode.exit25
    i8 13, label %isansicode.exit25
    i8 10, label %isansicode.exit25
  ]

32:                                               ; preds = %29
  %33 = add i8 %31, -32
  %34 = icmp ult i8 %33, 95
  %35 = zext i1 %34 to i32
  br label %isansicode.exit25

isansicode.exit25:                                ; preds = %29, %29, %29, %32
  %36 = phi i32 [ 1, %29 ], [ %35, %32 ], [ 1, %29 ], [ 1, %29 ]
  %37 = add i32 %36, %.130
  %indvars.iv.next37 = add nuw nsw i64 %indvars.iv36, 1
  %exitcond40.not = icmp eq i64 %indvars.iv.next37, %wide.trip.count39
  br i1 %exitcond40.not, label %._crit_edge, label %29, !llvm.loop !16

.critedge.thread:                                 ; preds = %.critedge, %1, %._crit_edge
  %.021 = phi i32 [ %28, %._crit_edge ], [ 0, %1 ], [ 0, %.critedge ]
  ret i32 %.021
}